; ModuleID = '33/1902.c'
source_filename = "33/1902.c"
target datalayout = "e-m:e-p270:32:32-p271:32:32-p272:64:64-i64:64-f80:128-n8:16:32:64-S128"
target triple = "x86_64-pc-linux-gnu"

@.str = private unnamed_addr constant [3 x i8] c"%d\00", align 1
@.str.1 = private unnamed_addr constant [3 x i8] c"%s\00", align 1
@.str.2 = private unnamed_addr constant [4 x i8] c"%s\0A\00", align 1

; Function Attrs: noinline nounwind uwtable
define dso_local i32 @main(i32 %0, i8** %1) #0 {
  %3 = alloca i32, align 4
  %4 = alloca i32, align 4
  %5 = alloca i8**, align 8
  %6 = alloca i32, align 4
  %7 = alloca i32, align 4
  %8 = alloca i32, align 4
  %9 = alloca i32, align 4
  %10 = alloca [256 x i8], align 16
  store i32 0, i32* %3, align 4
  store i32 %0, i32* %4, align 4
  store i8** %1, i8*** %5, align 8
  %11 = call i32 (i8*, ...) @__isoc99_scanf(i8* getelementptr inbounds ([3 x i8], [3 x i8]* @.str, i64 0, i64 0), i32* %6)
  store i32 0, i32* %7, align 4
  br label %12

12:                                               ; preds = %55, %2
  %13 = load i32, i32* %7, align 4
  %14 = load i32, i32* %6, align 4
  %15 = icmp slt i32 %13, %14
  br i1 %15, label %16, label %58

16:                                               ; preds = %12
  %17 = getelementptr inbounds [256 x i8], [256 x i8]* %10, i64 0, i64 0
  %18 = call i32 (i8*, ...) @__isoc99_scanf(i8* getelementptr inbounds ([3 x i8], [3 x i8]* @.str.1, i64 0, i64 0), i8* %17)
  %19 = getelementptr inbounds [256 x i8], [256 x i8]* %10, i64 0, i64 0
  %20 = call i64 @strlen(i8* %19) #3
  %21 = trunc i64 %20 to i32
  store i32 %21, i32* %8, align 4
  store i32 0, i32* %9, align 4
  br label %22

22:                                               ; preds = %49, %16
  %23 = load i32, i32* %9, align 4
  %24 = load i32, i32* %8, align 4
  %25 = icmp slt i32 %23, %24
  br i1 %25, label %26, label %52

26:                                               ; preds = %22
  %27 = load i32, i32* %9, align 4
  %28 = sext i32 %27 to i64
  %29 = getelementptr inbounds [256 x i8], [256 x i8]* %10, i64 0, i64 %28
  %30 = load i8, i8* %29, align 1
  %31 = sext i8 %30 to i32
  switch i32 %31, label %48 [
    i32 65, label %32
    i32 67, label %36
    i32 71, label %40
    i32 84, label %44
  ]

32:                                               ; preds = %26
  %33 = load i32, i32* %9, align 4
  %34 = sext i32 %33 to i64
  %35 = getelementptr inbounds [256 x i8], [256 x i8]* %10, i64 0, i64 %34
  store i8 84, i8* %35, align 1
  br label %48

36:                                               ; preds = %26
  %37 = load i32, i32* %9, align 4
  %38 = sext i32 %37 to i64
  %39 = getelementptr inbounds [256 x i8], [256 x i8]* %10, i64 0, i64 %38
  store i8 71, i8* %39, align 1
  br label %48

40:                                               ; preds = %26
  %41 = load i32, i32* %9, align 4
  %42 = sext i32 %41 to i64
  %43 = getelementptr inbounds [256 x i8], [256 x i8]* %10, i64 0, i64 %42
  store i8 67, i8* %43, align 1
  br label %48

44:                                               ; preds = %26
  %45 = load i32, i32* %9, align 4
  %46 = sext i32 %45 to i64
  %47 = getelementptr inbounds [256 x i8], [256 x i8]* %10, i64 0, i64 %46
  store i8 65, i8* %47, align 1
  br label %48

48:                                               ; preds = %26, %44, %40, %36, %32
  br label %49

49:                                               ; preds = %48
  %50 = load i32, i32* %9, align 4
  %51 = add nsw i32 %50, 1
  store i32 %51, i32* %9, align 4
  br label %22

52:                                               ; preds = %22
  %53 = getelementptr inbounds [256 x i8], [256 x i8]* %10, i64 0, i64 0
  %54 = call i32 (i8*, ...) @printf(i8* getelementptr inbounds ([4 x i8], [4 x i8]* @.str.2, i64 0, i64 0), i8* %53)
  br label %55

55:                                               ; preds = %52
  %56 = load i32, i32* %7, align 4
  %57 = add nsw i32 %56, 1
  store i32 %57, i32* %7, align 4
  br label %12

58:                                               ; preds = %12
  ret i32 0
}

declare dso_local i32 @__isoc99_scanf(i8*, ...) #1

; Function Attrs: nounwind readonly
declare dso_local i64 @strlen(i8*) #2

declare dso_local i32 @printf(i8*, ...) #1


!llvm.module.flags = !{!0}
!llvm.ident = !{!1}

!0 = !{i32 1, !"wchar_size", i32 4}
!1 = !{!"clang version 10.0.0-4ubuntu1 "}
